
I2C_Driver.elf:     file format elf32-avr

Sections:
Idx Name          Size      VMA       LMA       File off  Algn
  0 .text         000000b4  00000000  00000000  00000054  2**1
                  CONTENTS, ALLOC, LOAD, READONLY, CODE
  1 .stab         0000036c  00000000  00000000  00000108  2**2
                  CONTENTS, READONLY, DEBUGGING
  2 .stabstr      0000087e  00000000  00000000  00000474  2**0
                  CONTENTS, READONLY, DEBUGGING

Disassembly of section .text:

00000000 <__vectors>:
   0:	0c 94 2a 00 	jmp	0x54	; 0x54 <__ctors_end>
   4:	0c 94 34 00 	jmp	0x68	; 0x68 <__bad_interrupt>
   8:	0c 94 34 00 	jmp	0x68	; 0x68 <__bad_interrupt>
   c:	0c 94 34 00 	jmp	0x68	; 0x68 <__bad_interrupt>
  10:	0c 94 34 00 	jmp	0x68	; 0x68 <__bad_interrupt>
  14:	0c 94 34 00 	jmp	0x68	; 0x68 <__bad_interrupt>
  18:	0c 94 34 00 	jmp	0x68	; 0x68 <__bad_interrupt>
  1c:	0c 94 34 00 	jmp	0x68	; 0x68 <__bad_interrupt>
  20:	0c 94 34 00 	jmp	0x68	; 0x68 <__bad_interrupt>
  24:	0c 94 34 00 	jmp	0x68	; 0x68 <__bad_interrupt>
  28:	0c 94 34 00 	jmp	0x68	; 0x68 <__bad_interrupt>
  2c:	0c 94 34 00 	jmp	0x68	; 0x68 <__bad_interrupt>
  30:	0c 94 34 00 	jmp	0x68	; 0x68 <__bad_interrupt>
  34:	0c 94 34 00 	jmp	0x68	; 0x68 <__bad_interrupt>
  38:	0c 94 34 00 	jmp	0x68	; 0x68 <__bad_interrupt>
  3c:	0c 94 34 00 	jmp	0x68	; 0x68 <__bad_interrupt>
  40:	0c 94 34 00 	jmp	0x68	; 0x68 <__bad_interrupt>
  44:	0c 94 34 00 	jmp	0x68	; 0x68 <__bad_interrupt>
  48:	0c 94 34 00 	jmp	0x68	; 0x68 <__bad_interrupt>
  4c:	0c 94 34 00 	jmp	0x68	; 0x68 <__bad_interrupt>
  50:	0c 94 34 00 	jmp	0x68	; 0x68 <__bad_interrupt>

00000054 <__ctors_end>:
  54:	11 24       	eor	r1, r1
  56:	1f be       	out	0x3f, r1	; 63
  58:	cf e5       	ldi	r28, 0x5F	; 95
  5a:	d8 e0       	ldi	r29, 0x08	; 8
  5c:	de bf       	out	0x3e, r29	; 62
  5e:	cd bf       	out	0x3d, r28	; 61
  60:	0e 94 53 00 	call	0xa6	; 0xa6 <main>
  64:	0c 94 58 00 	jmp	0xb0	; 0xb0 <_exit>

00000068 <__bad_interrupt>:
  68:	0c 94 00 00 	jmp	0	; 0x0 <__vectors>

0000006c <I2C_VoidMasterInit>:

#include "avr/io.h"


void I2C_VoidMasterInit()
{
  6c:	df 93       	push	r29
  6e:	cf 93       	push	r28
  70:	cd b7       	in	r28, 0x3d	; 61
  72:	de b7       	in	r29, 0x3e	; 62
	TWCR=(1<<TWEA);
  74:	e6 e5       	ldi	r30, 0x56	; 86
  76:	f0 e0       	ldi	r31, 0x00	; 0
  78:	80 e4       	ldi	r24, 0x40	; 64
  7a:	80 83       	st	Z, r24

}
  7c:	cf 91       	pop	r28
  7e:	df 91       	pop	r29
  80:	08 95       	ret

00000082 <I2C_VoidSlaveInit>:
void I2C_VoidSlaveInit()
{
  82:	df 93       	push	r29
  84:	cf 93       	push	r28
  86:	cd b7       	in	r28, 0x3d	; 61
  88:	de b7       	in	r29, 0x3e	; 62


}
  8a:	cf 91       	pop	r28
  8c:	df 91       	pop	r29
  8e:	08 95       	ret

00000090 <I2C_VoidStartCondition>:
void I2C_VoidStartCondition()
{
  90:	df 93       	push	r29
  92:	cf 93       	push	r28
  94:	cd b7       	in	r28, 0x3d	; 61
  96:	de b7       	in	r29, 0x3e	; 62
	TWCR=(1<<TWSTA);
  98:	e6 e5       	ldi	r30, 0x56	; 86
  9a:	f0 e0       	ldi	r31, 0x00	; 0
  9c:	80 e2       	ldi	r24, 0x20	; 32
  9e:	80 83       	st	Z, r24
}
  a0:	cf 91       	pop	r28
  a2:	df 91       	pop	r29
  a4:	08 95       	ret

000000a6 <main>:
int main(void)
{
  a6:	df 93       	push	r29
  a8:	cf 93       	push	r28
  aa:	cd b7       	in	r28, 0x3d	; 61
  ac:	de b7       	in	r29, 0x3e	; 62
  ae:	ff cf       	rjmp	.-2      	; 0xae <main+0x8>

000000b0 <_exit>:
  b0:	f8 94       	cli

000000b2 <__stop_program>:
  b2:	ff cf       	rjmp	.-2      	; 0xb2 <__stop_program>
