
Interrupt_Driver.elf:     file format elf32-avr

Sections:
Idx Name          Size      VMA       LMA       File off  Algn
  0 .text         0000059c  00000000  00000000  00000074  2**1
                  CONTENTS, ALLOC, LOAD, READONLY, CODE
  1 .bss          00000006  00800060  00800060  00000610  2**0
                  ALLOC

Disassembly of section .text:

00000000 <__vectors>:
   0:	0c 94 2a 00 	jmp	0x54	; 0x54 <__ctors_end>
   4:	0c 94 f0 00 	jmp	0x1e0	; 0x1e0 <__vector_1>
   8:	0c 94 17 01 	jmp	0x22e	; 0x22e <__vector_2>
   c:	0c 94 3e 01 	jmp	0x27c	; 0x27c <__vector_3>
  10:	0c 94 3c 00 	jmp	0x78	; 0x78 <__bad_interrupt>
  14:	0c 94 3c 00 	jmp	0x78	; 0x78 <__bad_interrupt>
  18:	0c 94 3c 00 	jmp	0x78	; 0x78 <__bad_interrupt>
  1c:	0c 94 3c 00 	jmp	0x78	; 0x78 <__bad_interrupt>
  20:	0c 94 3c 00 	jmp	0x78	; 0x78 <__bad_interrupt>
  24:	0c 94 3c 00 	jmp	0x78	; 0x78 <__bad_interrupt>
  28:	0c 94 3c 00 	jmp	0x78	; 0x78 <__bad_interrupt>
  2c:	0c 94 3c 00 	jmp	0x78	; 0x78 <__bad_interrupt>
  30:	0c 94 3c 00 	jmp	0x78	; 0x78 <__bad_interrupt>
  34:	0c 94 3c 00 	jmp	0x78	; 0x78 <__bad_interrupt>
  38:	0c 94 3c 00 	jmp	0x78	; 0x78 <__bad_interrupt>
  3c:	0c 94 3c 00 	jmp	0x78	; 0x78 <__bad_interrupt>
  40:	0c 94 3c 00 	jmp	0x78	; 0x78 <__bad_interrupt>
  44:	0c 94 3c 00 	jmp	0x78	; 0x78 <__bad_interrupt>
  48:	0c 94 3c 00 	jmp	0x78	; 0x78 <__bad_interrupt>
  4c:	0c 94 3c 00 	jmp	0x78	; 0x78 <__bad_interrupt>
  50:	0c 94 3c 00 	jmp	0x78	; 0x78 <__bad_interrupt>

00000054 <__ctors_end>:
  54:	11 24       	eor	r1, r1
  56:	1f be       	out	0x3f, r1	; 63
  58:	cf e5       	ldi	r28, 0x5F	; 95
  5a:	d8 e0       	ldi	r29, 0x08	; 8
  5c:	de bf       	out	0x3e, r29	; 62
  5e:	cd bf       	out	0x3d, r28	; 61

00000060 <__do_clear_bss>:
  60:	10 e0       	ldi	r17, 0x00	; 0
  62:	a0 e6       	ldi	r26, 0x60	; 96
  64:	b0 e0       	ldi	r27, 0x00	; 0
  66:	01 c0       	rjmp	.+2      	; 0x6a <.do_clear_bss_start>

00000068 <.do_clear_bss_loop>:
  68:	1d 92       	st	X+, r1

0000006a <.do_clear_bss_start>:
  6a:	a6 36       	cpi	r26, 0x66	; 102
  6c:	b1 07       	cpc	r27, r17
  6e:	e1 f7       	brne	.-8      	; 0x68 <.do_clear_bss_loop>
  70:	0e 94 bd 02 	call	0x57a	; 0x57a <main>
  74:	0c 94 cc 02 	jmp	0x598	; 0x598 <_exit>

00000078 <__bad_interrupt>:
  78:	0c 94 00 00 	jmp	0	; 0x0 <__vectors>

0000007c <PORT_VoidInit>:
  7c:	83 ef       	ldi	r24, 0xF3	; 243
  7e:	8a bb       	out	0x1a, r24	; 26
  80:	17 ba       	out	0x17, r1	; 23
  82:	8f ef       	ldi	r24, 0xFF	; 255
  84:	84 bb       	out	0x14, r24	; 20
  86:	8b ef       	ldi	r24, 0xFB	; 251
  88:	81 bb       	out	0x11, r24	; 17
  8a:	8c ef       	ldi	r24, 0xFC	; 252
  8c:	8b bb       	out	0x1b, r24	; 27
  8e:	18 ba       	out	0x18, r1	; 24
  90:	15 ba       	out	0x15, r1	; 21
  92:	84 e0       	ldi	r24, 0x04	; 4
  94:	82 bb       	out	0x12, r24	; 18
  96:	08 95       	ret

00000098 <EXTI_VidEnableOrDisableGIE>:
  98:	81 30       	cpi	r24, 0x01	; 1
  9a:	21 f4       	brne	.+8      	; 0xa4 <EXTI_VidEnableOrDisableGIE+0xc>
  9c:	8f b7       	in	r24, 0x3f	; 63
  9e:	80 68       	ori	r24, 0x80	; 128
  a0:	8f bf       	out	0x3f, r24	; 63
  a2:	08 95       	ret
  a4:	88 23       	and	r24, r24
  a6:	19 f4       	brne	.+6      	; 0xae <EXTI_VidEnableOrDisableGIE+0x16>
  a8:	8f b7       	in	r24, 0x3f	; 63
  aa:	8f 77       	andi	r24, 0x7F	; 127
  ac:	8f bf       	out	0x3f, r24	; 63
  ae:	08 95       	ret

000000b0 <EXTI_u8EnableOrDisableInterruptPin_Postbuild>:
  b0:	98 2f       	mov	r25, r24
  b2:	61 30       	cpi	r22, 0x01	; 1
  b4:	99 f4       	brne	.+38     	; 0xdc <EXTI_u8EnableOrDisableInterruptPin_Postbuild+0x2c>
  b6:	8f b7       	in	r24, 0x3f	; 63
  b8:	80 68       	ori	r24, 0x80	; 128
  ba:	8f bf       	out	0x3f, r24	; 63
  bc:	91 30       	cpi	r25, 0x01	; 1
  be:	41 f0       	breq	.+16     	; 0xd0 <EXTI_u8EnableOrDisableInterruptPin_Postbuild+0x20>
  c0:	91 30       	cpi	r25, 0x01	; 1
  c2:	18 f0       	brcs	.+6      	; 0xca <EXTI_u8EnableOrDisableInterruptPin_Postbuild+0x1a>
  c4:	92 30       	cpi	r25, 0x02	; 2
  c6:	f1 f4       	brne	.+60     	; 0x104 <EXTI_u8EnableOrDisableInterruptPin_Postbuild+0x54>
  c8:	06 c0       	rjmp	.+12     	; 0xd6 <EXTI_u8EnableOrDisableInterruptPin_Postbuild+0x26>
  ca:	8b b7       	in	r24, 0x3b	; 59
  cc:	80 64       	ori	r24, 0x40	; 64
  ce:	17 c0       	rjmp	.+46     	; 0xfe <EXTI_u8EnableOrDisableInterruptPin_Postbuild+0x4e>
  d0:	8b b7       	in	r24, 0x3b	; 59
  d2:	80 68       	ori	r24, 0x80	; 128
  d4:	14 c0       	rjmp	.+40     	; 0xfe <EXTI_u8EnableOrDisableInterruptPin_Postbuild+0x4e>
  d6:	8b b7       	in	r24, 0x3b	; 59
  d8:	80 62       	ori	r24, 0x20	; 32
  da:	11 c0       	rjmp	.+34     	; 0xfe <EXTI_u8EnableOrDisableInterruptPin_Postbuild+0x4e>
  dc:	66 23       	and	r22, r22
  de:	91 f4       	brne	.+36     	; 0x104 <EXTI_u8EnableOrDisableInterruptPin_Postbuild+0x54>
  e0:	81 30       	cpi	r24, 0x01	; 1
  e2:	41 f0       	breq	.+16     	; 0xf4 <EXTI_u8EnableOrDisableInterruptPin_Postbuild+0x44>
  e4:	81 30       	cpi	r24, 0x01	; 1
  e6:	18 f0       	brcs	.+6      	; 0xee <EXTI_u8EnableOrDisableInterruptPin_Postbuild+0x3e>
  e8:	82 30       	cpi	r24, 0x02	; 2
  ea:	61 f4       	brne	.+24     	; 0x104 <EXTI_u8EnableOrDisableInterruptPin_Postbuild+0x54>
  ec:	06 c0       	rjmp	.+12     	; 0xfa <EXTI_u8EnableOrDisableInterruptPin_Postbuild+0x4a>
  ee:	8b b7       	in	r24, 0x3b	; 59
  f0:	8f 7b       	andi	r24, 0xBF	; 191
  f2:	05 c0       	rjmp	.+10     	; 0xfe <EXTI_u8EnableOrDisableInterruptPin_Postbuild+0x4e>
  f4:	8b b7       	in	r24, 0x3b	; 59
  f6:	8f 77       	andi	r24, 0x7F	; 127
  f8:	02 c0       	rjmp	.+4      	; 0xfe <EXTI_u8EnableOrDisableInterruptPin_Postbuild+0x4e>
  fa:	8b b7       	in	r24, 0x3b	; 59
  fc:	8f 7d       	andi	r24, 0xDF	; 223
  fe:	8b bf       	out	0x3b, r24	; 59
 100:	80 e0       	ldi	r24, 0x00	; 0
 102:	08 95       	ret
 104:	81 e0       	ldi	r24, 0x01	; 1
 106:	08 95       	ret

00000108 <EXTI_voidEnableOrDisableInterruptPin_Prebuild>:
 108:	8f b7       	in	r24, 0x3f	; 63
 10a:	80 68       	ori	r24, 0x80	; 128
 10c:	8f bf       	out	0x3f, r24	; 63
 10e:	8b b7       	in	r24, 0x3b	; 59
 110:	80 64       	ori	r24, 0x40	; 64
 112:	8b bf       	out	0x3b, r24	; 59
 114:	8b b7       	in	r24, 0x3b	; 59
 116:	8f 77       	andi	r24, 0x7F	; 127
 118:	8b bf       	out	0x3b, r24	; 59
 11a:	8b b7       	in	r24, 0x3b	; 59
 11c:	8f 7d       	andi	r24, 0xDF	; 223
 11e:	8b bf       	out	0x3b, r24	; 59
 120:	08 95       	ret

00000122 <EXTI_u8ControlSense_Postbuild>:
 122:	95 b7       	in	r25, 0x35	; 53
 124:	61 30       	cpi	r22, 0x01	; 1
 126:	81 f0       	breq	.+32     	; 0x148 <EXTI_u8ControlSense_Postbuild+0x26>
 128:	61 30       	cpi	r22, 0x01	; 1
 12a:	28 f0       	brcs	.+10     	; 0x136 <EXTI_u8ControlSense_Postbuild+0x14>
 12c:	62 30       	cpi	r22, 0x02	; 2
 12e:	b9 f0       	breq	.+46     	; 0x15e <EXTI_u8ControlSense_Postbuild+0x3c>
 130:	63 30       	cpi	r22, 0x03	; 3
 132:	b1 f5       	brne	.+108    	; 0x1a0 <EXTI_u8ControlSense_Postbuild+0x7e>
 134:	24 c0       	rjmp	.+72     	; 0x17e <EXTI_u8ControlSense_Postbuild+0x5c>
 136:	88 23       	and	r24, r24
 138:	19 f0       	breq	.+6      	; 0x140 <EXTI_u8ControlSense_Postbuild+0x1e>
 13a:	81 30       	cpi	r24, 0x01	; 1
 13c:	89 f5       	brne	.+98     	; 0x1a0 <EXTI_u8ControlSense_Postbuild+0x7e>
 13e:	02 c0       	rjmp	.+4      	; 0x144 <EXTI_u8ControlSense_Postbuild+0x22>
 140:	9c 7f       	andi	r25, 0xFC	; 252
 142:	27 c0       	rjmp	.+78     	; 0x192 <EXTI_u8ControlSense_Postbuild+0x70>
 144:	93 7f       	andi	r25, 0xF3	; 243
 146:	25 c0       	rjmp	.+74     	; 0x192 <EXTI_u8ControlSense_Postbuild+0x70>
 148:	88 23       	and	r24, r24
 14a:	19 f0       	breq	.+6      	; 0x152 <EXTI_u8ControlSense_Postbuild+0x30>
 14c:	81 30       	cpi	r24, 0x01	; 1
 14e:	41 f5       	brne	.+80     	; 0x1a0 <EXTI_u8ControlSense_Postbuild+0x7e>
 150:	03 c0       	rjmp	.+6      	; 0x158 <EXTI_u8ControlSense_Postbuild+0x36>
 152:	9c 7f       	andi	r25, 0xFC	; 252
 154:	91 60       	ori	r25, 0x01	; 1
 156:	1d c0       	rjmp	.+58     	; 0x192 <EXTI_u8ControlSense_Postbuild+0x70>
 158:	93 7f       	andi	r25, 0xF3	; 243
 15a:	94 60       	ori	r25, 0x04	; 4
 15c:	1a c0       	rjmp	.+52     	; 0x192 <EXTI_u8ControlSense_Postbuild+0x70>
 15e:	81 30       	cpi	r24, 0x01	; 1
 160:	41 f0       	breq	.+16     	; 0x172 <EXTI_u8ControlSense_Postbuild+0x50>
 162:	81 30       	cpi	r24, 0x01	; 1
 164:	18 f0       	brcs	.+6      	; 0x16c <EXTI_u8ControlSense_Postbuild+0x4a>
 166:	82 30       	cpi	r24, 0x02	; 2
 168:	d9 f4       	brne	.+54     	; 0x1a0 <EXTI_u8ControlSense_Postbuild+0x7e>
 16a:	06 c0       	rjmp	.+12     	; 0x178 <EXTI_u8ControlSense_Postbuild+0x56>
 16c:	9c 7f       	andi	r25, 0xFC	; 252
 16e:	92 60       	ori	r25, 0x02	; 2
 170:	10 c0       	rjmp	.+32     	; 0x192 <EXTI_u8ControlSense_Postbuild+0x70>
 172:	93 7f       	andi	r25, 0xF3	; 243
 174:	98 60       	ori	r25, 0x08	; 8
 176:	0d c0       	rjmp	.+26     	; 0x192 <EXTI_u8ControlSense_Postbuild+0x70>
 178:	84 b7       	in	r24, 0x34	; 52
 17a:	8f 7b       	andi	r24, 0xBF	; 191
 17c:	0e c0       	rjmp	.+28     	; 0x19a <EXTI_u8ControlSense_Postbuild+0x78>
 17e:	81 30       	cpi	r24, 0x01	; 1
 180:	39 f0       	breq	.+14     	; 0x190 <EXTI_u8ControlSense_Postbuild+0x6e>
 182:	81 30       	cpi	r24, 0x01	; 1
 184:	18 f0       	brcs	.+6      	; 0x18c <EXTI_u8ControlSense_Postbuild+0x6a>
 186:	82 30       	cpi	r24, 0x02	; 2
 188:	59 f4       	brne	.+22     	; 0x1a0 <EXTI_u8ControlSense_Postbuild+0x7e>
 18a:	05 c0       	rjmp	.+10     	; 0x196 <EXTI_u8ControlSense_Postbuild+0x74>
 18c:	93 60       	ori	r25, 0x03	; 3
 18e:	01 c0       	rjmp	.+2      	; 0x192 <EXTI_u8ControlSense_Postbuild+0x70>
 190:	9c 60       	ori	r25, 0x0C	; 12
 192:	95 bf       	out	0x35, r25	; 53
 194:	03 c0       	rjmp	.+6      	; 0x19c <EXTI_u8ControlSense_Postbuild+0x7a>
 196:	84 b7       	in	r24, 0x34	; 52
 198:	80 64       	ori	r24, 0x40	; 64
 19a:	84 bf       	out	0x34, r24	; 52
 19c:	80 e0       	ldi	r24, 0x00	; 0
 19e:	08 95       	ret
 1a0:	81 e0       	ldi	r24, 0x01	; 1
 1a2:	08 95       	ret

000001a4 <EXTI_VidControlSense_Prebuild>:
 1a4:	85 b7       	in	r24, 0x35	; 53
 1a6:	8c 7f       	andi	r24, 0xFC	; 252
 1a8:	85 bf       	out	0x35, r24	; 53
 1aa:	85 b7       	in	r24, 0x35	; 53
 1ac:	82 60       	ori	r24, 0x02	; 2
 1ae:	85 bf       	out	0x35, r24	; 53
 1b0:	85 b7       	in	r24, 0x35	; 53
 1b2:	83 7f       	andi	r24, 0xF3	; 243
 1b4:	85 bf       	out	0x35, r24	; 53
 1b6:	85 b7       	in	r24, 0x35	; 53
 1b8:	8c 60       	ori	r24, 0x0C	; 12
 1ba:	85 bf       	out	0x35, r24	; 53
 1bc:	84 b7       	in	r24, 0x34	; 52
 1be:	8f 7b       	andi	r24, 0xBF	; 191
 1c0:	84 bf       	out	0x34, r24	; 52
 1c2:	08 95       	ret

000001c4 <SendAddress_Callback>:
 1c4:	00 97       	sbiw	r24, 0x00	; 0
 1c6:	11 f4       	brne	.+4      	; 0x1cc <SendAddress_Callback+0x8>
 1c8:	82 e0       	ldi	r24, 0x02	; 2
 1ca:	08 95       	ret
 1cc:	e6 2f       	mov	r30, r22
 1ce:	f0 e0       	ldi	r31, 0x00	; 0
 1d0:	ee 0f       	add	r30, r30
 1d2:	ff 1f       	adc	r31, r31
 1d4:	e0 5a       	subi	r30, 0xA0	; 160
 1d6:	ff 4f       	sbci	r31, 0xFF	; 255
 1d8:	91 83       	std	Z+1, r25	; 0x01
 1da:	80 83       	st	Z, r24
 1dc:	80 e0       	ldi	r24, 0x00	; 0
 1de:	08 95       	ret

000001e0 <__vector_1>:
 1e0:	1f 92       	push	r1
 1e2:	0f 92       	push	r0
 1e4:	0f b6       	in	r0, 0x3f	; 63
 1e6:	0f 92       	push	r0
 1e8:	11 24       	eor	r1, r1
 1ea:	2f 93       	push	r18
 1ec:	3f 93       	push	r19
 1ee:	4f 93       	push	r20
 1f0:	5f 93       	push	r21
 1f2:	6f 93       	push	r22
 1f4:	7f 93       	push	r23
 1f6:	8f 93       	push	r24
 1f8:	9f 93       	push	r25
 1fa:	af 93       	push	r26
 1fc:	bf 93       	push	r27
 1fe:	ef 93       	push	r30
 200:	ff 93       	push	r31
 202:	e0 91 60 00 	lds	r30, 0x0060
 206:	f0 91 61 00 	lds	r31, 0x0061
 20a:	09 95       	icall
 20c:	ff 91       	pop	r31
 20e:	ef 91       	pop	r30
 210:	bf 91       	pop	r27
 212:	af 91       	pop	r26
 214:	9f 91       	pop	r25
 216:	8f 91       	pop	r24
 218:	7f 91       	pop	r23
 21a:	6f 91       	pop	r22
 21c:	5f 91       	pop	r21
 21e:	4f 91       	pop	r20
 220:	3f 91       	pop	r19
 222:	2f 91       	pop	r18
 224:	0f 90       	pop	r0
 226:	0f be       	out	0x3f, r0	; 63
 228:	0f 90       	pop	r0
 22a:	1f 90       	pop	r1
 22c:	18 95       	reti

0000022e <__vector_2>:
 22e:	1f 92       	push	r1
 230:	0f 92       	push	r0
 232:	0f b6       	in	r0, 0x3f	; 63
 234:	0f 92       	push	r0
 236:	11 24       	eor	r1, r1
 238:	2f 93       	push	r18
 23a:	3f 93       	push	r19
 23c:	4f 93       	push	r20
 23e:	5f 93       	push	r21
 240:	6f 93       	push	r22
 242:	7f 93       	push	r23
 244:	8f 93       	push	r24
 246:	9f 93       	push	r25
 248:	af 93       	push	r26
 24a:	bf 93       	push	r27
 24c:	ef 93       	push	r30
 24e:	ff 93       	push	r31
 250:	e0 91 62 00 	lds	r30, 0x0062
 254:	f0 91 63 00 	lds	r31, 0x0063
 258:	09 95       	icall
 25a:	ff 91       	pop	r31
 25c:	ef 91       	pop	r30
 25e:	bf 91       	pop	r27
 260:	af 91       	pop	r26
 262:	9f 91       	pop	r25
 264:	8f 91       	pop	r24
 266:	7f 91       	pop	r23
 268:	6f 91       	pop	r22
 26a:	5f 91       	pop	r21
 26c:	4f 91       	pop	r20
 26e:	3f 91       	pop	r19
 270:	2f 91       	pop	r18
 272:	0f 90       	pop	r0
 274:	0f be       	out	0x3f, r0	; 63
 276:	0f 90       	pop	r0
 278:	1f 90       	pop	r1
 27a:	18 95       	reti

0000027c <__vector_3>:
 27c:	1f 92       	push	r1
 27e:	0f 92       	push	r0
 280:	0f b6       	in	r0, 0x3f	; 63
 282:	0f 92       	push	r0
 284:	11 24       	eor	r1, r1
 286:	2f 93       	push	r18
 288:	3f 93       	push	r19
 28a:	4f 93       	push	r20
 28c:	5f 93       	push	r21
 28e:	6f 93       	push	r22
 290:	7f 93       	push	r23
 292:	8f 93       	push	r24
 294:	9f 93       	push	r25
 296:	af 93       	push	r26
 298:	bf 93       	push	r27
 29a:	ef 93       	push	r30
 29c:	ff 93       	push	r31
 29e:	e0 91 64 00 	lds	r30, 0x0064
 2a2:	f0 91 65 00 	lds	r31, 0x0065
 2a6:	09 95       	icall
 2a8:	ff 91       	pop	r31
 2aa:	ef 91       	pop	r30
 2ac:	bf 91       	pop	r27
 2ae:	af 91       	pop	r26
 2b0:	9f 91       	pop	r25
 2b2:	8f 91       	pop	r24
 2b4:	7f 91       	pop	r23
 2b6:	6f 91       	pop	r22
 2b8:	5f 91       	pop	r21
 2ba:	4f 91       	pop	r20
 2bc:	3f 91       	pop	r19
 2be:	2f 91       	pop	r18
 2c0:	0f 90       	pop	r0
 2c2:	0f be       	out	0x3f, r0	; 63
 2c4:	0f 90       	pop	r0
 2c6:	1f 90       	pop	r1
 2c8:	18 95       	reti

000002ca <DIO_U8SetPortDir>:
 2ca:	84 30       	cpi	r24, 0x04	; 4
 2cc:	10 f0       	brcs	.+4      	; 0x2d2 <DIO_U8SetPortDir+0x8>
 2ce:	81 e0       	ldi	r24, 0x01	; 1
 2d0:	08 95       	ret
 2d2:	81 30       	cpi	r24, 0x01	; 1
 2d4:	49 f0       	breq	.+18     	; 0x2e8 <DIO_U8SetPortDir+0x1e>
 2d6:	81 30       	cpi	r24, 0x01	; 1
 2d8:	28 f0       	brcs	.+10     	; 0x2e4 <DIO_U8SetPortDir+0x1a>
 2da:	82 30       	cpi	r24, 0x02	; 2
 2dc:	39 f0       	breq	.+14     	; 0x2ec <DIO_U8SetPortDir+0x22>
 2de:	83 30       	cpi	r24, 0x03	; 3
 2e0:	31 f4       	brne	.+12     	; 0x2ee <DIO_U8SetPortDir+0x24>
 2e2:	07 c0       	rjmp	.+14     	; 0x2f2 <DIO_U8SetPortDir+0x28>
 2e4:	6a bb       	out	0x1a, r22	; 26
 2e6:	03 c0       	rjmp	.+6      	; 0x2ee <DIO_U8SetPortDir+0x24>
 2e8:	67 bb       	out	0x17, r22	; 23
 2ea:	01 c0       	rjmp	.+2      	; 0x2ee <DIO_U8SetPortDir+0x24>
 2ec:	64 bb       	out	0x14, r22	; 20
 2ee:	80 e0       	ldi	r24, 0x00	; 0
 2f0:	08 95       	ret
 2f2:	61 bb       	out	0x11, r22	; 17
 2f4:	80 e0       	ldi	r24, 0x00	; 0
 2f6:	08 95       	ret

000002f8 <DIO_U8SetPortVal>:
 2f8:	84 30       	cpi	r24, 0x04	; 4
 2fa:	10 f0       	brcs	.+4      	; 0x300 <DIO_U8SetPortVal+0x8>
 2fc:	81 e0       	ldi	r24, 0x01	; 1
 2fe:	08 95       	ret
 300:	81 30       	cpi	r24, 0x01	; 1
 302:	49 f0       	breq	.+18     	; 0x316 <DIO_U8SetPortVal+0x1e>
 304:	81 30       	cpi	r24, 0x01	; 1
 306:	28 f0       	brcs	.+10     	; 0x312 <DIO_U8SetPortVal+0x1a>
 308:	82 30       	cpi	r24, 0x02	; 2
 30a:	39 f0       	breq	.+14     	; 0x31a <DIO_U8SetPortVal+0x22>
 30c:	83 30       	cpi	r24, 0x03	; 3
 30e:	31 f4       	brne	.+12     	; 0x31c <DIO_U8SetPortVal+0x24>
 310:	07 c0       	rjmp	.+14     	; 0x320 <DIO_U8SetPortVal+0x28>
 312:	6b bb       	out	0x1b, r22	; 27
 314:	03 c0       	rjmp	.+6      	; 0x31c <DIO_U8SetPortVal+0x24>
 316:	68 bb       	out	0x18, r22	; 24
 318:	01 c0       	rjmp	.+2      	; 0x31c <DIO_U8SetPortVal+0x24>
 31a:	65 bb       	out	0x15, r22	; 21
 31c:	80 e0       	ldi	r24, 0x00	; 0
 31e:	08 95       	ret
 320:	62 bb       	out	0x12, r22	; 18
 322:	80 e0       	ldi	r24, 0x00	; 0
 324:	08 95       	ret

00000326 <DIO_U8GetPortVal>:
 326:	fb 01       	movw	r30, r22
 328:	84 30       	cpi	r24, 0x04	; 4
 32a:	10 f0       	brcs	.+4      	; 0x330 <DIO_U8GetPortVal+0xa>
 32c:	81 e0       	ldi	r24, 0x01	; 1
 32e:	08 95       	ret
 330:	81 30       	cpi	r24, 0x01	; 1
 332:	49 f0       	breq	.+18     	; 0x346 <DIO_U8GetPortVal+0x20>
 334:	81 30       	cpi	r24, 0x01	; 1
 336:	28 f0       	brcs	.+10     	; 0x342 <DIO_U8GetPortVal+0x1c>
 338:	82 30       	cpi	r24, 0x02	; 2
 33a:	39 f0       	breq	.+14     	; 0x34a <DIO_U8GetPortVal+0x24>
 33c:	83 30       	cpi	r24, 0x03	; 3
 33e:	39 f4       	brne	.+14     	; 0x34e <DIO_U8GetPortVal+0x28>
 340:	08 c0       	rjmp	.+16     	; 0x352 <DIO_U8GetPortVal+0x2c>
 342:	89 b3       	in	r24, 0x19	; 25
 344:	03 c0       	rjmp	.+6      	; 0x34c <DIO_U8GetPortVal+0x26>
 346:	86 b3       	in	r24, 0x16	; 22
 348:	01 c0       	rjmp	.+2      	; 0x34c <DIO_U8GetPortVal+0x26>
 34a:	83 b3       	in	r24, 0x13	; 19
 34c:	80 83       	st	Z, r24
 34e:	80 e0       	ldi	r24, 0x00	; 0
 350:	08 95       	ret
 352:	80 b3       	in	r24, 0x10	; 16
 354:	80 83       	st	Z, r24
 356:	80 e0       	ldi	r24, 0x00	; 0
 358:	08 95       	ret

0000035a <DIO_U8SetPinDir>:
 35a:	41 30       	cpi	r20, 0x01	; 1
 35c:	b1 f5       	brne	.+108    	; 0x3ca <DIO_U8SetPinDir+0x70>
 35e:	81 30       	cpi	r24, 0x01	; 1
 360:	99 f0       	breq	.+38     	; 0x388 <DIO_U8SetPinDir+0x2e>
 362:	81 30       	cpi	r24, 0x01	; 1
 364:	30 f0       	brcs	.+12     	; 0x372 <DIO_U8SetPinDir+0x18>
 366:	82 30       	cpi	r24, 0x02	; 2
 368:	d1 f0       	breq	.+52     	; 0x39e <DIO_U8SetPinDir+0x44>
 36a:	83 30       	cpi	r24, 0x03	; 3
 36c:	09 f0       	breq	.+2      	; 0x370 <DIO_U8SetPinDir+0x16>
 36e:	6b c0       	rjmp	.+214    	; 0x446 <DIO_U8SetPinDir+0xec>
 370:	21 c0       	rjmp	.+66     	; 0x3b4 <DIO_U8SetPinDir+0x5a>
 372:	2a b3       	in	r18, 0x1a	; 26
 374:	81 e0       	ldi	r24, 0x01	; 1
 376:	90 e0       	ldi	r25, 0x00	; 0
 378:	02 c0       	rjmp	.+4      	; 0x37e <DIO_U8SetPinDir+0x24>
 37a:	88 0f       	add	r24, r24
 37c:	99 1f       	adc	r25, r25
 37e:	6a 95       	dec	r22
 380:	e2 f7       	brpl	.-8      	; 0x37a <DIO_U8SetPinDir+0x20>
 382:	28 2b       	or	r18, r24
 384:	2a bb       	out	0x1a, r18	; 26
 386:	5d c0       	rjmp	.+186    	; 0x442 <DIO_U8SetPinDir+0xe8>
 388:	27 b3       	in	r18, 0x17	; 23
 38a:	81 e0       	ldi	r24, 0x01	; 1
 38c:	90 e0       	ldi	r25, 0x00	; 0
 38e:	02 c0       	rjmp	.+4      	; 0x394 <DIO_U8SetPinDir+0x3a>
 390:	88 0f       	add	r24, r24
 392:	99 1f       	adc	r25, r25
 394:	6a 95       	dec	r22
 396:	e2 f7       	brpl	.-8      	; 0x390 <DIO_U8SetPinDir+0x36>
 398:	28 2b       	or	r18, r24
 39a:	27 bb       	out	0x17, r18	; 23
 39c:	52 c0       	rjmp	.+164    	; 0x442 <DIO_U8SetPinDir+0xe8>
 39e:	24 b3       	in	r18, 0x14	; 20
 3a0:	81 e0       	ldi	r24, 0x01	; 1
 3a2:	90 e0       	ldi	r25, 0x00	; 0
 3a4:	02 c0       	rjmp	.+4      	; 0x3aa <DIO_U8SetPinDir+0x50>
 3a6:	88 0f       	add	r24, r24
 3a8:	99 1f       	adc	r25, r25
 3aa:	6a 95       	dec	r22
 3ac:	e2 f7       	brpl	.-8      	; 0x3a6 <DIO_U8SetPinDir+0x4c>
 3ae:	28 2b       	or	r18, r24
 3b0:	24 bb       	out	0x14, r18	; 20
 3b2:	47 c0       	rjmp	.+142    	; 0x442 <DIO_U8SetPinDir+0xe8>
 3b4:	21 b3       	in	r18, 0x11	; 17
 3b6:	81 e0       	ldi	r24, 0x01	; 1
 3b8:	90 e0       	ldi	r25, 0x00	; 0
 3ba:	02 c0       	rjmp	.+4      	; 0x3c0 <DIO_U8SetPinDir+0x66>
 3bc:	88 0f       	add	r24, r24
 3be:	99 1f       	adc	r25, r25
 3c0:	6a 95       	dec	r22
 3c2:	e2 f7       	brpl	.-8      	; 0x3bc <DIO_U8SetPinDir+0x62>
 3c4:	28 2b       	or	r18, r24
 3c6:	21 bb       	out	0x11, r18	; 17
 3c8:	3c c0       	rjmp	.+120    	; 0x442 <DIO_U8SetPinDir+0xe8>
 3ca:	44 23       	and	r20, r20
 3cc:	11 f0       	breq	.+4      	; 0x3d2 <DIO_U8SetPinDir+0x78>
 3ce:	81 e0       	ldi	r24, 0x01	; 1
 3d0:	08 95       	ret
 3d2:	81 30       	cpi	r24, 0x01	; 1
 3d4:	99 f0       	breq	.+38     	; 0x3fc <DIO_U8SetPinDir+0xa2>
 3d6:	81 30       	cpi	r24, 0x01	; 1
 3d8:	28 f0       	brcs	.+10     	; 0x3e4 <DIO_U8SetPinDir+0x8a>
 3da:	82 30       	cpi	r24, 0x02	; 2
 3dc:	d9 f0       	breq	.+54     	; 0x414 <DIO_U8SetPinDir+0xba>
 3de:	83 30       	cpi	r24, 0x03	; 3
 3e0:	91 f5       	brne	.+100    	; 0x446 <DIO_U8SetPinDir+0xec>
 3e2:	24 c0       	rjmp	.+72     	; 0x42c <DIO_U8SetPinDir+0xd2>
 3e4:	2a b3       	in	r18, 0x1a	; 26
 3e6:	81 e0       	ldi	r24, 0x01	; 1
 3e8:	90 e0       	ldi	r25, 0x00	; 0
 3ea:	02 c0       	rjmp	.+4      	; 0x3f0 <DIO_U8SetPinDir+0x96>
 3ec:	88 0f       	add	r24, r24
 3ee:	99 1f       	adc	r25, r25
 3f0:	6a 95       	dec	r22
 3f2:	e2 f7       	brpl	.-8      	; 0x3ec <DIO_U8SetPinDir+0x92>
 3f4:	80 95       	com	r24
 3f6:	82 23       	and	r24, r18
 3f8:	8a bb       	out	0x1a, r24	; 26
 3fa:	23 c0       	rjmp	.+70     	; 0x442 <DIO_U8SetPinDir+0xe8>
 3fc:	27 b3       	in	r18, 0x17	; 23
 3fe:	81 e0       	ldi	r24, 0x01	; 1
 400:	90 e0       	ldi	r25, 0x00	; 0
 402:	02 c0       	rjmp	.+4      	; 0x408 <DIO_U8SetPinDir+0xae>
 404:	88 0f       	add	r24, r24
 406:	99 1f       	adc	r25, r25
 408:	6a 95       	dec	r22
 40a:	e2 f7       	brpl	.-8      	; 0x404 <DIO_U8SetPinDir+0xaa>
 40c:	80 95       	com	r24
 40e:	82 23       	and	r24, r18
 410:	87 bb       	out	0x17, r24	; 23
 412:	17 c0       	rjmp	.+46     	; 0x442 <DIO_U8SetPinDir+0xe8>
 414:	24 b3       	in	r18, 0x14	; 20
 416:	81 e0       	ldi	r24, 0x01	; 1
 418:	90 e0       	ldi	r25, 0x00	; 0
 41a:	02 c0       	rjmp	.+4      	; 0x420 <DIO_U8SetPinDir+0xc6>
 41c:	88 0f       	add	r24, r24
 41e:	99 1f       	adc	r25, r25
 420:	6a 95       	dec	r22
 422:	e2 f7       	brpl	.-8      	; 0x41c <DIO_U8SetPinDir+0xc2>
 424:	80 95       	com	r24
 426:	82 23       	and	r24, r18
 428:	84 bb       	out	0x14, r24	; 20
 42a:	0b c0       	rjmp	.+22     	; 0x442 <DIO_U8SetPinDir+0xe8>
 42c:	21 b3       	in	r18, 0x11	; 17
 42e:	81 e0       	ldi	r24, 0x01	; 1
 430:	90 e0       	ldi	r25, 0x00	; 0
 432:	02 c0       	rjmp	.+4      	; 0x438 <DIO_U8SetPinDir+0xde>
 434:	88 0f       	add	r24, r24
 436:	99 1f       	adc	r25, r25
 438:	6a 95       	dec	r22
 43a:	e2 f7       	brpl	.-8      	; 0x434 <DIO_U8SetPinDir+0xda>
 43c:	80 95       	com	r24
 43e:	82 23       	and	r24, r18
 440:	81 bb       	out	0x11, r24	; 17
 442:	80 e0       	ldi	r24, 0x00	; 0
 444:	08 95       	ret
 446:	80 e0       	ldi	r24, 0x00	; 0
 448:	08 95       	ret

0000044a <DIO_U8SetPinVal>:
 44a:	41 30       	cpi	r20, 0x01	; 1
 44c:	b1 f5       	brne	.+108    	; 0x4ba <DIO_U8SetPinVal+0x70>
 44e:	81 30       	cpi	r24, 0x01	; 1
 450:	99 f0       	breq	.+38     	; 0x478 <DIO_U8SetPinVal+0x2e>
 452:	81 30       	cpi	r24, 0x01	; 1
 454:	30 f0       	brcs	.+12     	; 0x462 <DIO_U8SetPinVal+0x18>
 456:	82 30       	cpi	r24, 0x02	; 2
 458:	d1 f0       	breq	.+52     	; 0x48e <DIO_U8SetPinVal+0x44>
 45a:	83 30       	cpi	r24, 0x03	; 3
 45c:	09 f0       	breq	.+2      	; 0x460 <DIO_U8SetPinVal+0x16>
 45e:	6b c0       	rjmp	.+214    	; 0x536 <DIO_U8SetPinVal+0xec>
 460:	21 c0       	rjmp	.+66     	; 0x4a4 <DIO_U8SetPinVal+0x5a>
 462:	2b b3       	in	r18, 0x1b	; 27
 464:	81 e0       	ldi	r24, 0x01	; 1
 466:	90 e0       	ldi	r25, 0x00	; 0
 468:	02 c0       	rjmp	.+4      	; 0x46e <DIO_U8SetPinVal+0x24>
 46a:	88 0f       	add	r24, r24
 46c:	99 1f       	adc	r25, r25
 46e:	6a 95       	dec	r22
 470:	e2 f7       	brpl	.-8      	; 0x46a <DIO_U8SetPinVal+0x20>
 472:	28 2b       	or	r18, r24
 474:	2b bb       	out	0x1b, r18	; 27
 476:	5d c0       	rjmp	.+186    	; 0x532 <DIO_U8SetPinVal+0xe8>
 478:	28 b3       	in	r18, 0x18	; 24
 47a:	81 e0       	ldi	r24, 0x01	; 1
 47c:	90 e0       	ldi	r25, 0x00	; 0
 47e:	02 c0       	rjmp	.+4      	; 0x484 <DIO_U8SetPinVal+0x3a>
 480:	88 0f       	add	r24, r24
 482:	99 1f       	adc	r25, r25
 484:	6a 95       	dec	r22
 486:	e2 f7       	brpl	.-8      	; 0x480 <DIO_U8SetPinVal+0x36>
 488:	28 2b       	or	r18, r24
 48a:	28 bb       	out	0x18, r18	; 24
 48c:	52 c0       	rjmp	.+164    	; 0x532 <DIO_U8SetPinVal+0xe8>
 48e:	25 b3       	in	r18, 0x15	; 21
 490:	81 e0       	ldi	r24, 0x01	; 1
 492:	90 e0       	ldi	r25, 0x00	; 0
 494:	02 c0       	rjmp	.+4      	; 0x49a <DIO_U8SetPinVal+0x50>
 496:	88 0f       	add	r24, r24
 498:	99 1f       	adc	r25, r25
 49a:	6a 95       	dec	r22
 49c:	e2 f7       	brpl	.-8      	; 0x496 <DIO_U8SetPinVal+0x4c>
 49e:	28 2b       	or	r18, r24
 4a0:	25 bb       	out	0x15, r18	; 21
 4a2:	47 c0       	rjmp	.+142    	; 0x532 <DIO_U8SetPinVal+0xe8>
 4a4:	22 b3       	in	r18, 0x12	; 18
 4a6:	81 e0       	ldi	r24, 0x01	; 1
 4a8:	90 e0       	ldi	r25, 0x00	; 0
 4aa:	02 c0       	rjmp	.+4      	; 0x4b0 <DIO_U8SetPinVal+0x66>
 4ac:	88 0f       	add	r24, r24
 4ae:	99 1f       	adc	r25, r25
 4b0:	6a 95       	dec	r22
 4b2:	e2 f7       	brpl	.-8      	; 0x4ac <DIO_U8SetPinVal+0x62>
 4b4:	28 2b       	or	r18, r24
 4b6:	22 bb       	out	0x12, r18	; 18
 4b8:	3c c0       	rjmp	.+120    	; 0x532 <DIO_U8SetPinVal+0xe8>
 4ba:	44 23       	and	r20, r20
 4bc:	11 f0       	breq	.+4      	; 0x4c2 <DIO_U8SetPinVal+0x78>
 4be:	81 e0       	ldi	r24, 0x01	; 1
 4c0:	08 95       	ret
 4c2:	81 30       	cpi	r24, 0x01	; 1
 4c4:	99 f0       	breq	.+38     	; 0x4ec <DIO_U8SetPinVal+0xa2>
 4c6:	81 30       	cpi	r24, 0x01	; 1
 4c8:	28 f0       	brcs	.+10     	; 0x4d4 <DIO_U8SetPinVal+0x8a>
 4ca:	82 30       	cpi	r24, 0x02	; 2
 4cc:	d9 f0       	breq	.+54     	; 0x504 <DIO_U8SetPinVal+0xba>
 4ce:	83 30       	cpi	r24, 0x03	; 3
 4d0:	91 f5       	brne	.+100    	; 0x536 <DIO_U8SetPinVal+0xec>
 4d2:	24 c0       	rjmp	.+72     	; 0x51c <DIO_U8SetPinVal+0xd2>
 4d4:	2b b3       	in	r18, 0x1b	; 27
 4d6:	81 e0       	ldi	r24, 0x01	; 1
 4d8:	90 e0       	ldi	r25, 0x00	; 0
 4da:	02 c0       	rjmp	.+4      	; 0x4e0 <DIO_U8SetPinVal+0x96>
 4dc:	88 0f       	add	r24, r24
 4de:	99 1f       	adc	r25, r25
 4e0:	6a 95       	dec	r22
 4e2:	e2 f7       	brpl	.-8      	; 0x4dc <DIO_U8SetPinVal+0x92>
 4e4:	80 95       	com	r24
 4e6:	82 23       	and	r24, r18
 4e8:	8b bb       	out	0x1b, r24	; 27
 4ea:	23 c0       	rjmp	.+70     	; 0x532 <DIO_U8SetPinVal+0xe8>
 4ec:	28 b3       	in	r18, 0x18	; 24
 4ee:	81 e0       	ldi	r24, 0x01	; 1
 4f0:	90 e0       	ldi	r25, 0x00	; 0
 4f2:	02 c0       	rjmp	.+4      	; 0x4f8 <DIO_U8SetPinVal+0xae>
 4f4:	88 0f       	add	r24, r24
 4f6:	99 1f       	adc	r25, r25
 4f8:	6a 95       	dec	r22
 4fa:	e2 f7       	brpl	.-8      	; 0x4f4 <DIO_U8SetPinVal+0xaa>
 4fc:	80 95       	com	r24
 4fe:	82 23       	and	r24, r18
 500:	88 bb       	out	0x18, r24	; 24
 502:	17 c0       	rjmp	.+46     	; 0x532 <DIO_U8SetPinVal+0xe8>
 504:	25 b3       	in	r18, 0x15	; 21
 506:	81 e0       	ldi	r24, 0x01	; 1
 508:	90 e0       	ldi	r25, 0x00	; 0
 50a:	02 c0       	rjmp	.+4      	; 0x510 <DIO_U8SetPinVal+0xc6>
 50c:	88 0f       	add	r24, r24
 50e:	99 1f       	adc	r25, r25
 510:	6a 95       	dec	r22
 512:	e2 f7       	brpl	.-8      	; 0x50c <DIO_U8SetPinVal+0xc2>
 514:	80 95       	com	r24
 516:	82 23       	and	r24, r18
 518:	85 bb       	out	0x15, r24	; 21
 51a:	0b c0       	rjmp	.+22     	; 0x532 <DIO_U8SetPinVal+0xe8>
 51c:	22 b3       	in	r18, 0x12	; 18
 51e:	81 e0       	ldi	r24, 0x01	; 1
 520:	90 e0       	ldi	r25, 0x00	; 0
 522:	02 c0       	rjmp	.+4      	; 0x528 <DIO_U8SetPinVal+0xde>
 524:	88 0f       	add	r24, r24
 526:	99 1f       	adc	r25, r25
 528:	6a 95       	dec	r22
 52a:	e2 f7       	brpl	.-8      	; 0x524 <DIO_U8SetPinVal+0xda>
 52c:	80 95       	com	r24
 52e:	82 23       	and	r24, r18
 530:	82 bb       	out	0x12, r24	; 18
 532:	80 e0       	ldi	r24, 0x00	; 0
 534:	08 95       	ret
 536:	80 e0       	ldi	r24, 0x00	; 0
 538:	08 95       	ret

0000053a <DIO_U8GetPinVal>:
 53a:	fa 01       	movw	r30, r20
 53c:	81 30       	cpi	r24, 0x01	; 1
 53e:	49 f0       	breq	.+18     	; 0x552 <DIO_U8GetPinVal+0x18>
 540:	81 30       	cpi	r24, 0x01	; 1
 542:	28 f0       	brcs	.+10     	; 0x54e <DIO_U8GetPinVal+0x14>
 544:	82 30       	cpi	r24, 0x02	; 2
 546:	39 f0       	breq	.+14     	; 0x556 <DIO_U8GetPinVal+0x1c>
 548:	83 30       	cpi	r24, 0x03	; 3
 54a:	81 f4       	brne	.+32     	; 0x56c <DIO_U8GetPinVal+0x32>
 54c:	06 c0       	rjmp	.+12     	; 0x55a <DIO_U8GetPinVal+0x20>
 54e:	89 b3       	in	r24, 0x19	; 25
 550:	05 c0       	rjmp	.+10     	; 0x55c <DIO_U8GetPinVal+0x22>
 552:	86 b3       	in	r24, 0x16	; 22
 554:	03 c0       	rjmp	.+6      	; 0x55c <DIO_U8GetPinVal+0x22>
 556:	83 b3       	in	r24, 0x13	; 19
 558:	01 c0       	rjmp	.+2      	; 0x55c <DIO_U8GetPinVal+0x22>
 55a:	80 b3       	in	r24, 0x10	; 16
 55c:	90 e0       	ldi	r25, 0x00	; 0
 55e:	02 c0       	rjmp	.+4      	; 0x564 <DIO_U8GetPinVal+0x2a>
 560:	95 95       	asr	r25
 562:	87 95       	ror	r24
 564:	6a 95       	dec	r22
 566:	e2 f7       	brpl	.-8      	; 0x560 <DIO_U8GetPinVal+0x26>
 568:	81 70       	andi	r24, 0x01	; 1
 56a:	80 83       	st	Z, r24
 56c:	80 e0       	ldi	r24, 0x00	; 0
 56e:	08 95       	ret

00000570 <INT0_INTERRUPT>:
 570:	8b b3       	in	r24, 0x1b	; 27
 572:	91 e0       	ldi	r25, 0x01	; 1
 574:	89 27       	eor	r24, r25
 576:	8b bb       	out	0x1b, r24	; 27
 578:	08 95       	ret

0000057a <main>:
 57a:	0e 94 3e 00 	call	0x7c	; 0x7c <PORT_VoidInit>
 57e:	88 eb       	ldi	r24, 0xB8	; 184
 580:	92 e0       	ldi	r25, 0x02	; 2
 582:	60 e0       	ldi	r22, 0x00	; 0
 584:	0e 94 e2 00 	call	0x1c4	; 0x1c4 <SendAddress_Callback>
 588:	81 e0       	ldi	r24, 0x01	; 1
 58a:	0e 94 4c 00 	call	0x98	; 0x98 <EXTI_VidEnableOrDisableGIE>
 58e:	0e 94 84 00 	call	0x108	; 0x108 <EXTI_voidEnableOrDisableInterruptPin_Prebuild>
 592:	0e 94 d2 00 	call	0x1a4	; 0x1a4 <EXTI_VidControlSense_Prebuild>
 596:	ff cf       	rjmp	.-2      	; 0x596 <main+0x1c>

00000598 <_exit>:
 598:	f8 94       	cli

0000059a <__stop_program>:
 59a:	ff cf       	rjmp	.-2      	; 0x59a <__stop_program>
